; Function Attrs: mustprogress nounwind uwtable
define dso_local void @_ZN14btOptimizedBvhD0Ev(ptr noundef nonnull align 8 dereferenceable(244) %this) unnamed_addr #2 align 2 personality ptr @__gxx_personality_v0 {
entry:
  tail call void @_ZN14btQuantizedBvhD2Ev(ptr noundef nonnull align 8 dereferenceable(244) %this) #10
  invoke void @_Z21btAlignedFreeInternalPv(ptr noundef nonnull %this)
          to label %_ZN14btOptimizedBvhdlEPv.exit unwind label %terminate.lpad.i

terminate.lpad.i:                                 ; preds = %entry
  %0 = landingpad { ptr, i32 }
          catch ptr null
  %1 = extractvalue { ptr, i32 } %0, 0
  tail call void @__clang_call_terminate(ptr %1) #11
  unreachable

_ZN14btOptimizedBvhdlEPv.exit:                    ; preds = %entry
  ret void
}